target datalayout = "e-m:e-p270:32:32-p271:32:32-p272:64:64-i64:64-i128:128-f80:128-n8:16:32:64-S128"
target triple = "x86_64-pc-linux-gnu"

%struct.FunctionCallInfoBaseData = type { ptr, ptr, ptr, i32, i8, i16, [0 x %struct.NullableDatum] }
%struct.NullableDatum = type { i64, i8 }
%struct.oidvector = type { i32, i32, i32, i32, i32, i32, [0 x i32] }

@.str.25 = private unnamed_addr constant [3 x i8] c", \00", align 1

; Function Attrs: inlinehint nounwind uwtable
define internal i64 @PointerGetDatum(ptr noundef %0) #2 {
  %2 = alloca ptr, align 8
  store ptr %0, ptr %2, align 8
  %3 = load ptr, ptr %2, align 8
  %4 = ptrtoint ptr %3 to i64
  ret i64 %4
}

; Function Attrs: inlinehint nounwind uwtable
define internal ptr @DatumGetPointer(i64 noundef %0) #2 {
  %2 = alloca i64, align 8
  store i64 %0, ptr %2, align 8
  %3 = load i64, ptr %2, align 8
  %4 = inttoptr i64 %3 to ptr
  ret ptr %4
}

; Function Attrs: nounwind uwtable
define dso_local i64 @oidvectortypes(ptr noundef %0) #0 {
  %2 = alloca ptr, align 8
  %3 = alloca ptr, align 8
  %4 = alloca ptr, align 8
  %5 = alloca i32, align 4
  %6 = alloca i32, align 4
  %7 = alloca i64, align 8
  %8 = alloca i64, align 8
  %9 = alloca ptr, align 8
  %10 = alloca i64, align 8
  store ptr %0, ptr %2, align 8
  call void @llvm.lifetime.start.p0(i64 8, ptr %3) #7
  %11 = load ptr, ptr %2, align 8
  %12 = getelementptr inbounds nuw %struct.FunctionCallInfoBaseData, ptr %11, i32 0, i32 6
  %13 = getelementptr inbounds [0 x %struct.NullableDatum], ptr %12, i64 0, i64 0
  %14 = getelementptr inbounds nuw %struct.NullableDatum, ptr %13, i32 0, i32 0
  %15 = load i64, ptr %14, align 8
  %16 = call ptr @DatumGetPointer(i64 noundef %15)
  store ptr %16, ptr %3, align 8
  call void @llvm.lifetime.start.p0(i64 8, ptr %4) #7
  call void @llvm.lifetime.start.p0(i64 4, ptr %5) #7
  %17 = load ptr, ptr %3, align 8
  %18 = getelementptr inbounds nuw %struct.oidvector, ptr %17, i32 0, i32 4
  %19 = load i32, ptr %18, align 4
  store i32 %19, ptr %5, align 4
  call void @llvm.lifetime.start.p0(i64 4, ptr %6) #7
  call void @llvm.lifetime.start.p0(i64 8, ptr %7) #7
  call void @llvm.lifetime.start.p0(i64 8, ptr %8) #7
  %20 = load i32, ptr %5, align 4
  %21 = mul i32 20, %20
  %22 = add i32 %21, 1
  %23 = sext i32 %22 to i64
  store i64 %23, ptr %7, align 8
  %24 = load i64, ptr %7, align 8
  %25 = call ptr @palloc(i64 noundef %24)
  store ptr %25, ptr %4, align 8
  %26 = load ptr, ptr %4, align 8
  %27 = getelementptr inbounds i8, ptr %26, i64 0
  store i8 0, ptr %27, align 1
  %28 = load i64, ptr %7, align 8
  %29 = sub i64 %28, 1
  store i64 %29, ptr %8, align 8
  store i32 0, ptr %6, align 4
  br label %30

30:                                               ; preds = %75, %1
  %31 = load i32, ptr %6, align 4
  %32 = load i32, ptr %5, align 4
  %33 = icmp slt i32 %31, %32
  br i1 %33, label %34, label %78

34:                                               ; preds = %30
  call void @llvm.lifetime.start.p0(i64 8, ptr %9) #7
  %35 = load ptr, ptr %3, align 8
  %36 = getelementptr inbounds nuw %struct.oidvector, ptr %35, i32 0, i32 6
  %37 = load i32, ptr %6, align 4
  %38 = sext i32 %37 to i64
  %39 = getelementptr inbounds [0 x i32], ptr %36, i64 0, i64 %38
  %40 = load i32, ptr %39, align 4
  %41 = call ptr @format_type_extended(i32 noundef %40, i32 noundef -1, i16 noundef zeroext 2)
  store ptr %41, ptr %9, align 8
  call void @llvm.lifetime.start.p0(i64 8, ptr %10) #7
  %42 = load ptr, ptr %9, align 8
  %43 = call i64 @strlen(ptr noundef %42) #9
  store i64 %43, ptr %10, align 8
  %44 = load i64, ptr %8, align 8
  %45 = load i64, ptr %10, align 8
  %46 = add i64 %45, 2
  %47 = icmp ult i64 %44, %46
  br i1 %47, label %48, label %60

48:                                               ; preds = %34
  %49 = load i64, ptr %10, align 8
  %50 = add i64 %49, 2
  %51 = load i64, ptr %7, align 8
  %52 = add i64 %51, %50
  store i64 %52, ptr %7, align 8
  %53 = load ptr, ptr %4, align 8
  %54 = load i64, ptr %7, align 8
  %55 = call ptr @repalloc(ptr noundef %53, i64 noundef %54)
  store ptr %55, ptr %4, align 8
  %56 = load i64, ptr %10, align 8
  %57 = add i64 %56, 2
  %58 = load i64, ptr %8, align 8
  %59 = add i64 %58, %57
  store i64 %59, ptr %8, align 8
  br label %60

60:                                               ; preds = %48, %34
  %61 = load i32, ptr %6, align 4
  %62 = icmp sgt i32 %61, 0
  br i1 %62, label %63, label %68

63:                                               ; preds = %60
  %64 = load ptr, ptr %4, align 8
  %65 = call ptr @strcat(ptr noundef %64, ptr noundef @.str.25) #7
  %66 = load i64, ptr %8, align 8
  %67 = sub i64 %66, 2
  store i64 %67, ptr %8, align 8
  br label %68

68:                                               ; preds = %63, %60
  %69 = load ptr, ptr %4, align 8
  %70 = load ptr, ptr %9, align 8
  %71 = call ptr @strcat(ptr noundef %69, ptr noundef %70) #7
  %72 = load i64, ptr %10, align 8
  %73 = load i64, ptr %8, align 8
  %74 = sub i64 %73, %72
  store i64 %74, ptr %8, align 8
  call void @llvm.lifetime.end.p0(i64 8, ptr %10) #7
  call void @llvm.lifetime.end.p0(i64 8, ptr %9) #7
  br label %75

75:                                               ; preds = %68
  %76 = load i32, ptr %6, align 4
  %77 = add i32 %76, 1
  store i32 %77, ptr %6, align 4
  br label %30, !llvm.loop !6

78:                                               ; preds = %30
  %79 = load ptr, ptr %4, align 8
  %80 = call ptr @cstring_to_text(ptr noundef %79)
  %81 = call i64 @PointerGetDatum(ptr noundef %80)
  call void @llvm.lifetime.end.p0(i64 8, ptr %8) #7
  call void @llvm.lifetime.end.p0(i64 8, ptr %7) #7
  call void @llvm.lifetime.end.p0(i64 4, ptr %6) #7
  call void @llvm.lifetime.end.p0(i64 4, ptr %5) #7
  call void @llvm.lifetime.end.p0(i64 8, ptr %4) #7
  call void @llvm.lifetime.end.p0(i64 8, ptr %3) #7
  ret i64 %81
}