; Function Attrs: nounwind uwtable
define dso_local i64 @oidvectortypes(ptr noundef readonly captures(none) %0) local_unnamed_addr #0 {
  %2 = getelementptr inbounds nuw i8, ptr %0, i64 32
  %3 = load i64, ptr %2, align 8
  %4 = inttoptr i64 %3 to ptr
  %5 = getelementptr inbounds nuw i8, ptr %4, i64 16
  %6 = load i32, ptr %5, align 4
  %7 = mul i32 %6, 20
  %8 = or disjoint i32 %7, 1
  %9 = sext i32 %8 to i64
  %10 = tail call ptr @palloc(i64 noundef %9) #7
  store i8 0, ptr %10, align 1
  %11 = icmp sgt i32 %6, 0
  br i1 %11, label %.lr.ph, label %._crit_edge

.lr.ph:                                           ; preds = %1
  %12 = add nsw i64 %9, -1
  %13 = getelementptr inbounds nuw i8, ptr %4, i64 24
  %wide.trip.count = zext nneg i32 %6 to i64
  br label %14

14:                                               ; preds = %.lr.ph, %28
  %indvars.iv = phi i64 [ 0, %.lr.ph ], [ %indvars.iv.next, %28 ]
  %.036 = phi ptr [ %10, %.lr.ph ], [ %.1, %28 ]
  %.02834 = phi i64 [ %12, %.lr.ph ], [ %30, %28 ]
  %.03033 = phi i64 [ %9, %.lr.ph ], [ %.131, %28 ]
  %15 = getelementptr inbounds nuw [0 x i32], ptr %13, i64 0, i64 %indvars.iv
  %16 = load i32, ptr %15, align 4
  %17 = tail call ptr @format_type_extended(i32 noundef %16, i32 noundef -1, i16 noundef zeroext 2)
  %18 = tail call i64 @strlen(ptr noundef nonnull dereferenceable(1) %17) #9
  %19 = add i64 %18, 2
  %20 = icmp ult i64 %.02834, %19
  br i1 %20, label %21, label %25

21:                                               ; preds = %14
  %22 = add i64 %19, %.03033
  %23 = tail call ptr @repalloc(ptr noundef nonnull %.036, i64 noundef %22) #7
  %24 = add i64 %19, %.02834
  br label %25

25:                                               ; preds = %21, %14
  %.131 = phi i64 [ %22, %21 ], [ %.03033, %14 ]
  %.129 = phi i64 [ %24, %21 ], [ %.02834, %14 ]
  %.1 = phi ptr [ %23, %21 ], [ %.036, %14 ]
  %.not = icmp eq i64 %indvars.iv, 0
  br i1 %.not, label %28, label %26

26:                                               ; preds = %25
  %strlen = tail call i64 @strlen(ptr nonnull dereferenceable(1) %.1)
  %endptr = getelementptr inbounds i8, ptr %.1, i64 %strlen
  tail call void @llvm.memcpy.p0.p0.i64(ptr noundef nonnull align 1 dereferenceable(3) %endptr, ptr noundef nonnull align 1 dereferenceable(3) @.str.25, i64 3, i1 false)
  %27 = add i64 %.129, -2
  br label %28

28:                                               ; preds = %26, %25
  %.2 = phi i64 [ %27, %26 ], [ %.129, %25 ]
  %29 = tail call ptr @strcat(ptr noundef nonnull dereferenceable(1) %.1, ptr noundef nonnull dereferenceable(1) %17) #7
  %30 = sub i64 %.2, %18
  %indvars.iv.next = add nuw nsw i64 %indvars.iv, 1
  %exitcond.not = icmp eq i64 %indvars.iv.next, %wide.trip.count
  br i1 %exitcond.not, label %._crit_edge, label %14, !llvm.loop !6

._crit_edge:                                      ; preds = %28, %1
  %.0.lcssa = phi ptr [ %10, %1 ], [ %.1, %28 ]
  %31 = tail call ptr @cstring_to_text(ptr noundef nonnull %.0.lcssa) #7
  %32 = ptrtoint ptr %31 to i64
  ret i64 %32
}